; Function Attrs: nounwind uwtable
define dso_local void @hashTypeCurrentObject(ptr noundef readonly captures(none) %0, i32 noundef %1, ptr noundef writeonly captures(none) %2, ptr noundef %3, ptr noundef %4, ptr noundef captures(address_is_null) %5) local_unnamed_addr #1 {
  %7 = alloca ptr, align 8
  %8 = alloca i64, align 8
  %9 = getelementptr inbounds nuw i8, ptr %0, i64 8
  %10 = load i32, ptr %9, align 8, !tbaa !113
  switch i32 %10, label %23 [
    i32 11, label %11
    i32 12, label %11
    i32 2, label %19
  ]

11:                                               ; preds = %6, %6
  store ptr null, ptr %2, align 8, !tbaa !85
  %12 = and i32 %1, 1
  %.not.i = icmp eq i32 %12, 0
  %..i = select i1 %.not.i, i64 24, i64 16
  %13 = getelementptr inbounds nuw i8, ptr %0, i64 %..i
  %14 = load ptr, ptr %13, align 8, !tbaa !85
  %15 = tail call ptr @lpGetValue(ptr noundef %14, ptr noundef %3, ptr noundef %4) #16
  store ptr %15, ptr %2, align 8, !tbaa !85
  %.not14.i = icmp eq ptr %5, null
  br i1 %.not14.i, label %hashTypeCurrentFromListpack.exit, label %16

16:                                               ; preds = %11
  %17 = getelementptr inbounds nuw i8, ptr %0, i64 40
  %18 = load i64, ptr %17, align 8, !tbaa !114
  store i64 %18, ptr %5, align 8, !tbaa !28
  br label %hashTypeCurrentFromListpack.exit

19:                                               ; preds = %6
  call void @llvm.lifetime.start.p0(i64 8, ptr nonnull %7) #16
  call void @llvm.lifetime.start.p0(i64 8, ptr nonnull %8) #16
  call void @hashTypeCurrentFromHashTable(ptr noundef nonnull %0, i32 noundef %1, ptr noundef nonnull %7, ptr noundef nonnull %8, ptr noundef %5)
  %20 = load ptr, ptr %7, align 8, !tbaa !85
  store ptr %20, ptr %2, align 8, !tbaa !85
  %21 = load i64, ptr %8, align 8, !tbaa !28
  %22 = trunc i64 %21 to i32
  store i32 %22, ptr %3, align 4, !tbaa !65
  call void @llvm.lifetime.end.p0(i64 8, ptr nonnull %8) #16
  call void @llvm.lifetime.end.p0(i64 8, ptr nonnull %7) #16
  br label %hashTypeCurrentFromListpack.exit

23:                                               ; preds = %6
  tail call void (ptr, i32, ptr, ...) @_serverPanic(ptr noundef nonnull @.str.2, i32 noundef 1517, ptr noundef nonnull @.str.11) #16
  tail call void @abort() #17
  unreachable

hashTypeCurrentFromListpack.exit:                 ; preds = %16, %11, %19
  ret void
}